; Function Attrs: mustprogress uwtable
define void @_ZN3nix39parseURL_parsesAnythingInUriFormat_Test8TestBodyEv(ptr nocapture nonnull readnone align 8 %0) unnamed_addr #4 align 2 personality ptr @__gxx_personality_v0 {
  %2 = alloca %"struct.nix::ParsedURL", align 8
  %3 = alloca %"class.std::__cxx11::basic_string", align 8
  %4 = alloca %"class.std::allocator", align 1
  call void @_ZNSaIcEC1Ev(ptr noundef nonnull align 1 dereferenceable(1) %4) #22
  invoke void @_ZNSt7__cxx1112basic_stringIcSt11char_traitsIcESaIcEEC2IS3_EEPKcRKS3_(ptr noundef nonnull align 8 dereferenceable(32) %3, ptr noundef nonnull @.str.100, ptr noundef nonnull align 1 dereferenceable(1) %4)
          to label %5 unwind label %13

5:                                                ; preds = %1
  invoke void @_ZN3nix8parseURLERKNSt7__cxx1112basic_stringIcSt11char_traitsIcESaIcEEE(ptr dead_on_unwind nonnull writable sret(%"struct.nix::ParsedURL") align 8 %2, ptr noundef nonnull align 8 dereferenceable(32) %3)
          to label %6 unwind label %15

6:                                                ; preds = %5
  %7 = load ptr, ptr %3, align 8
  %8 = getelementptr inbounds i8, ptr %3, i64 16
  %9 = icmp eq ptr %7, %8
  br i1 %9, label %_ZNKSt7__cxx1112basic_stringIcSt11char_traitsIcESaIcEE11_M_is_localEv.exit.thread.i.i, label %_ZNKSt7__cxx1112basic_stringIcSt11char_traitsIcESaIcEE11_M_is_localEv.exit.i.i

_ZNKSt7__cxx1112basic_stringIcSt11char_traitsIcESaIcEE11_M_is_localEv.exit.thread.i.i: ; preds = %6
  %10 = getelementptr inbounds i8, ptr %3, i64 8
  %11 = load i64, ptr %10, align 8
  %12 = icmp ult i64 %11, 16
  call void @llvm.assume(i1 %12)
  br label %_ZNSt7__cxx1112basic_stringIcSt11char_traitsIcESaIcEED2Ev.exit

_ZNKSt7__cxx1112basic_stringIcSt11char_traitsIcESaIcEE11_M_is_localEv.exit.i.i: ; preds = %6
  call void @_ZdlPv(ptr noundef %7) #26
  br label %_ZNSt7__cxx1112basic_stringIcSt11char_traitsIcESaIcEED2Ev.exit

_ZNSt7__cxx1112basic_stringIcSt11char_traitsIcESaIcEED2Ev.exit: ; preds = %_ZNKSt7__cxx1112basic_stringIcSt11char_traitsIcESaIcEE11_M_is_localEv.exit.thread.i.i, %_ZNKSt7__cxx1112basic_stringIcSt11char_traitsIcESaIcEE11_M_is_localEv.exit.i.i
  call void @_ZNSaIcED2Ev(ptr noundef nonnull align 1 dereferenceable(1) %3) #22
  call void @_ZNSaIcED1Ev(ptr noundef nonnull align 1 dereferenceable(1) %4) #22
  call void @_ZN3nix9ParsedURLD2Ev(ptr noundef nonnull align 8 dereferenceable(248) %2) #22
  ret void

13:                                               ; preds = %1
  %14 = landingpad { ptr, i32 }
          cleanup
  br label %17

15:                                               ; preds = %5
  %16 = landingpad { ptr, i32 }
          cleanup
  call void @_ZNSt7__cxx1112basic_stringIcSt11char_traitsIcESaIcEED2Ev(ptr noundef nonnull align 8 dereferenceable(32) %3) #22
  br label %17

17:                                               ; preds = %15, %13
  %.pn = phi { ptr, i32 } [ %16, %15 ], [ %14, %13 ]
  call void @_ZNSaIcED1Ev(ptr noundef nonnull align 1 dereferenceable(1) %4) #22
  resume { ptr, i32 } %.pn
}